target datalayout = "e-m:e-p270:32:32-p271:32:32-p272:64:64-i64:64-i128:128-f80:128-n8:16:32:64-S128"
target triple = "x86_64-pc-linux-gnu"

@ett_bacapp_tag = internal global i32 0, align 4
@.str.2612 = private unnamed_addr constant [24 x i8] c"%s - %u octets (Signed)\00", align 1
@.str.2679 = private unnamed_addr constant [30 x i8] c"%s (hh.mm.ss): %d.%02d.%02d%s\00", align 1
@.str.2680 = private unnamed_addr constant [14 x i8] c" (indefinite)\00", align 1
@.str.2681 = private unnamed_addr constant [1 x i8] zeroinitializer, align 1

; Function Attrs: null_pointer_is_valid sspstrong uwtable
define internal zeroext i1 @fUnsigned32(ptr noundef %0, i32 noundef %1, i32 noundef %2, ptr noundef %3) #0 {
  %5 = alloca ptr, align 8
  %6 = alloca i32, align 4
  %7 = alloca i32, align 4
  %8 = alloca ptr, align 8
  %9 = alloca i8, align 1
  store ptr %0, ptr %5, align 8
  store i32 %1, ptr %6, align 4
  store i32 %2, ptr %7, align 4
  store ptr %3, ptr %8, align 8
  call void @llvm.lifetime.start.p0(i64 1, ptr %9) #7
  store i8 1, ptr %9, align 1
  %10 = load i32, ptr %7, align 4
  switch i32 %10, label %33 [
    i32 1, label %11
    i32 2, label %17
    i32 3, label %23
    i32 4, label %28
  ]

11:                                               ; preds = %4
  %12 = load ptr, ptr %5, align 8
  %13 = load i32, ptr %6, align 4
  %14 = call zeroext i8 @tvb_get_uint8(ptr noundef %12, i32 noundef %13)
  %15 = zext i8 %14 to i32
  %16 = load ptr, ptr %8, align 8
  store i32 %15, ptr %16, align 4
  br label %34

17:                                               ; preds = %4
  %18 = load ptr, ptr %5, align 8
  %19 = load i32, ptr %6, align 4
  %20 = call zeroext i16 @tvb_get_ntohs(ptr noundef %18, i32 noundef %19)
  %21 = zext i16 %20 to i32
  %22 = load ptr, ptr %8, align 8
  store i32 %21, ptr %22, align 4
  br label %34

23:                                               ; preds = %4
  %24 = load ptr, ptr %5, align 8
  %25 = load i32, ptr %6, align 4
  %26 = call i32 @tvb_get_ntoh24(ptr noundef %24, i32 noundef %25)
  %27 = load ptr, ptr %8, align 8
  store i32 %26, ptr %27, align 4
  br label %34

28:                                               ; preds = %4
  %29 = load ptr, ptr %5, align 8
  %30 = load i32, ptr %6, align 4
  %31 = call i32 @tvb_get_ntohl(ptr noundef %29, i32 noundef %30)
  %32 = load ptr, ptr %8, align 8
  store i32 %31, ptr %32, align 4
  br label %34

33:                                               ; preds = %4
  store i8 0, ptr %9, align 1
  br label %34

34:                                               ; preds = %33, %28, %23, %17, %11
  %35 = load i8, ptr %9, align 1, !range !6, !noundef !7
  %36 = trunc i8 %35 to i1
  call void @llvm.lifetime.end.p0(i64 1, ptr %9) #7
  ret i1 %36
}

; Function Attrs: null_pointer_is_valid sspstrong uwtable
define internal i32 @fTagHeader(ptr noundef %0, ptr noundef %1, i32 noundef %2, ptr noundef %3, ptr noundef %4, ptr noundef %5) #0 {
  %7 = alloca ptr, align 8
  %8 = alloca ptr, align 8
  %9 = alloca i32, align 4
  %10 = alloca ptr, align 8
  %11 = alloca ptr, align 8
  %12 = alloca ptr, align 8
  store ptr %0, ptr %7, align 8
  store ptr %1, ptr %8, align 8
  store i32 %2, ptr %9, align 4
  store ptr %3, ptr %10, align 8
  store ptr %4, ptr %11, align 8
  store ptr %5, ptr %12, align 8
  %13 = load ptr, ptr %7, align 8
  %14 = load ptr, ptr %8, align 8
  %15 = load i32, ptr %9, align 4
  %16 = load ptr, ptr %10, align 8
  %17 = load ptr, ptr %11, align 8
  %18 = load ptr, ptr %12, align 8
  %19 = call i32 @fTagHeaderTree(ptr noundef %13, ptr noundef %14, ptr noundef null, i32 noundef %15, ptr noundef %16, ptr noundef %17, ptr noundef %18)
  ret i32 %19
}

; Function Attrs: null_pointer_is_valid sspstrong uwtable
define internal i32 @fTimeSpan(ptr noundef %0, ptr noundef %1, ptr noundef %2, i32 noundef %3, ptr noundef %4) #0 {
  %6 = alloca ptr, align 8
  %7 = alloca ptr, align 8
  %8 = alloca ptr, align 8
  %9 = alloca i32, align 4
  %10 = alloca ptr, align 8
  %11 = alloca i32, align 4
  %12 = alloca i32, align 4
  %13 = alloca i8, align 1
  %14 = alloca i8, align 1
  %15 = alloca ptr, align 8
  %16 = alloca i32, align 4
  store ptr %0, ptr %6, align 8
  store ptr %1, ptr %7, align 8
  store ptr %2, ptr %8, align 8
  store i32 %3, ptr %9, align 4
  store ptr %4, ptr %10, align 8
  call void @llvm.lifetime.start.p0(i64 4, ptr %11) #7
  store i32 0, ptr %11, align 4
  call void @llvm.lifetime.start.p0(i64 4, ptr %12) #7
  call void @llvm.lifetime.start.p0(i64 1, ptr %13) #7
  call void @llvm.lifetime.start.p0(i64 1, ptr %14) #7
  call void @llvm.lifetime.start.p0(i64 8, ptr %15) #7
  call void @llvm.lifetime.start.p0(i64 4, ptr %16) #7
  %17 = load ptr, ptr %6, align 8
  %18 = load ptr, ptr %7, align 8
  %19 = load i32, ptr %9, align 4
  %20 = call i32 @fTagHeader(ptr noundef %17, ptr noundef %18, i32 noundef %19, ptr noundef %13, ptr noundef %14, ptr noundef %12)
  store i32 %20, ptr %16, align 4
  %21 = load ptr, ptr %6, align 8
  %22 = load i32, ptr %9, align 4
  %23 = load i32, ptr %16, align 4
  %24 = add i32 %22, %23
  %25 = load i32, ptr %12, align 4
  %26 = call zeroext i1 @fUnsigned32(ptr noundef %21, i32 noundef %24, i32 noundef %25, ptr noundef %11)
  br i1 %26, label %27, label %47

27:                                               ; preds = %5
  %28 = load ptr, ptr %8, align 8
  %29 = load ptr, ptr %6, align 8
  %30 = load i32, ptr %9, align 4
  %31 = load i32, ptr %12, align 4
  %32 = load i32, ptr %16, align 4
  %33 = add i32 %31, %32
  %34 = load i32, ptr @ett_bacapp_tag, align 4
  %35 = load ptr, ptr %10, align 8
  %36 = load i32, ptr %11, align 4
  %37 = udiv i32 %36, 3600
  %38 = load i32, ptr %11, align 4
  %39 = urem i32 %38, 3600
  %40 = udiv i32 %39, 60
  %41 = load i32, ptr %11, align 4
  %42 = urem i32 %41, 60
  %43 = load i32, ptr %11, align 4
  %44 = icmp eq i32 %43, 0
  %45 = select i1 %44, ptr @.str.2680, ptr @.str.2681
  %46 = call ptr (ptr, ptr, i32, i32, i32, ptr, ptr, ...) @proto_tree_add_subtree_format(ptr noundef %28, ptr noundef %29, i32 noundef %30, i32 noundef %33, i32 noundef %34, ptr noundef null, ptr noundef @.str.2679, ptr noundef %35, i32 noundef %37, i32 noundef %40, i32 noundef %42, ptr noundef %45)
  store ptr %46, ptr %15, align 8
  br label %58

47:                                               ; preds = %5
  %48 = load ptr, ptr %8, align 8
  %49 = load ptr, ptr %6, align 8
  %50 = load i32, ptr %9, align 4
  %51 = load i32, ptr %12, align 4
  %52 = load i32, ptr %16, align 4
  %53 = add i32 %51, %52
  %54 = load i32, ptr @ett_bacapp_tag, align 4
  %55 = load ptr, ptr %10, align 8
  %56 = load i32, ptr %12, align 4
  %57 = call ptr (ptr, ptr, i32, i32, i32, ptr, ptr, ...) @proto_tree_add_subtree_format(ptr noundef %48, ptr noundef %49, i32 noundef %50, i32 noundef %53, i32 noundef %54, ptr noundef null, ptr noundef @.str.2612, ptr noundef %55, i32 noundef %56)
  store ptr %57, ptr %15, align 8
  br label %58

58:                                               ; preds = %47, %27
  %59 = load ptr, ptr %6, align 8
  %60 = load ptr, ptr %7, align 8
  %61 = load ptr, ptr %15, align 8
  %62 = load i32, ptr %9, align 4
  %63 = call i32 @fTagHeaderTree(ptr noundef %59, ptr noundef %60, ptr noundef %61, i32 noundef %62, ptr noundef %13, ptr noundef %14, ptr noundef %12)
  %64 = load i32, ptr %9, align 4
  %65 = load i32, ptr %16, align 4
  %66 = add i32 %64, %65
  %67 = load i32, ptr %12, align 4
  %68 = add i32 %66, %67
  call void @llvm.lifetime.end.p0(i64 4, ptr %16) #7
  call void @llvm.lifetime.end.p0(i64 8, ptr %15) #7
  call void @llvm.lifetime.end.p0(i64 1, ptr %14) #7
  call void @llvm.lifetime.end.p0(i64 1, ptr %13) #7
  call void @llvm.lifetime.end.p0(i64 4, ptr %12) #7
  call void @llvm.lifetime.end.p0(i64 4, ptr %11) #7
  ret i32 %68
}