; Function Attrs: null_pointer_is_valid sspstrong uwtable
define internal fastcc i32 @fTimeSpan(ptr noundef nonnull %0, ptr noundef %1, ptr noundef %2, i32 noundef %3, ptr noundef %4) unnamed_addr #0 {
  %6 = alloca i32, align 4
  %7 = alloca i8, align 1
  %8 = alloca i8, align 1
  call void @llvm.lifetime.start.p0(i64 4, ptr nonnull %6) #6
  call void @llvm.lifetime.start.p0(i64 1, ptr nonnull %7) #6
  call void @llvm.lifetime.start.p0(i64 1, ptr nonnull %8) #6
  %9 = call fastcc range(i32 1, 8) i32 @fTagHeaderTree(ptr noundef nonnull %0, ptr noundef %1, ptr noundef null, i32 noundef %3, ptr noundef nonnull %7, ptr noundef nonnull %8, ptr noundef nonnull %6)
  %10 = add i32 %9, %3
  %11 = load i32, ptr %6, align 4
  switch i32 %11, label %fUnsigned32.exit [
    i32 1, label %12
    i32 2, label %15
    i32 3, label %18
    i32 4, label %20
  ]

12:                                               ; preds = %5
  %13 = tail call zeroext i8 @tvb_get_uint8(ptr noundef nonnull %0, i32 noundef %10)
  %14 = zext i8 %13 to i32
  br label %22

15:                                               ; preds = %5
  %16 = tail call zeroext i16 @tvb_get_ntohs(ptr noundef nonnull %0, i32 noundef %10)
  %17 = zext i16 %16 to i32
  br label %22

18:                                               ; preds = %5
  %19 = tail call i32 @tvb_get_ntoh24(ptr noundef nonnull %0, i32 noundef %10)
  br label %22

20:                                               ; preds = %5
  %21 = tail call i32 @tvb_get_ntohl(ptr noundef nonnull %0, i32 noundef %10)
  br label %22

22:                                               ; preds = %20, %18, %15, %12
  %.021.ph = phi i32 [ %14, %12 ], [ %17, %15 ], [ %19, %18 ], [ %21, %20 ]
  %23 = add nuw nsw i32 %11, %9
  %24 = load i32, ptr @ett_bacapp_tag, align 4
  %25 = udiv i32 %.021.ph, 3600
  %26 = urem i32 %.021.ph, 3600
  %.lhs.trunc = trunc nuw nsw i32 %26 to i16
  %27 = udiv i16 %.lhs.trunc, 60
  %.zext = zext nneg i16 %27 to i32
  %28 = urem i32 %.021.ph, 60
  %29 = icmp eq i32 %.021.ph, 0
  %30 = select i1 %29, ptr @.str.2680, ptr @.str.2681
  %31 = tail call ptr (ptr, ptr, i32, i32, i32, ptr, ptr, ...) @proto_tree_add_subtree_format(ptr noundef %2, ptr noundef nonnull %0, i32 noundef %3, i32 noundef %23, i32 noundef %24, ptr noundef null, ptr noundef nonnull @.str.2679, ptr noundef %4, i32 noundef %25, i32 noundef %.zext, i32 noundef %28, ptr noundef nonnull %30)
  br label %35

fUnsigned32.exit:                                 ; preds = %5
  %32 = add i32 %11, %9
  %33 = load i32, ptr @ett_bacapp_tag, align 4
  %34 = tail call ptr (ptr, ptr, i32, i32, i32, ptr, ptr, ...) @proto_tree_add_subtree_format(ptr noundef %2, ptr noundef nonnull %0, i32 noundef %3, i32 noundef %32, i32 noundef %33, ptr noundef null, ptr noundef nonnull @.str.2612, ptr noundef %4, i32 noundef %11)
  br label %35

35:                                               ; preds = %fUnsigned32.exit, %22
  %.0 = phi ptr [ %31, %22 ], [ %34, %fUnsigned32.exit ]
  %36 = call fastcc i32 @fTagHeaderTree(ptr noundef %0, ptr noundef %1, ptr noundef %.0, i32 noundef %3, ptr noundef nonnull %7, ptr noundef nonnull %8, ptr noundef nonnull %6)
  %37 = load i32, ptr %6, align 4
  %38 = add i32 %37, %10
  call void @llvm.lifetime.end.p0(i64 1, ptr nonnull %8) #6
  call void @llvm.lifetime.end.p0(i64 1, ptr nonnull %7) #6
  call void @llvm.lifetime.end.p0(i64 4, ptr nonnull %6) #6
  ret i32 %38
}